target datalayout = "e-m:e-p270:32:32-p271:32:32-p272:64:64-i64:64-i128:128-f80:128-n8:16:32:64-S128"
target triple = "x86_64-pc-linux-gnu"

@.str.12 = private unnamed_addr constant [2 x i8] c"\0A\00", align 1
@.str.13 = private unnamed_addr constant [14 x i8] c"%s (len=%d): \00", align 1
@.str.14 = private unnamed_addr constant [5 x i8] c"%02X\00", align 1

; Function Attrs: nounwind uwtable
define internal void @ssl_print_hex(ptr noundef %0, i32 noundef %1, ptr noundef %2, ptr noundef %3, i64 noundef %4) #0 {
  %6 = alloca ptr, align 8
  %7 = alloca i32, align 4
  %8 = alloca ptr, align 8
  %9 = alloca ptr, align 8
  %10 = alloca i64, align 8
  %11 = alloca i64, align 8
  store ptr %0, ptr %6, align 8, !tbaa !15
  store i32 %1, ptr %7, align 4, !tbaa !3
  store ptr %2, ptr %8, align 8, !tbaa !13
  store ptr %3, ptr %9, align 8, !tbaa !13
  store i64 %4, ptr %10, align 8, !tbaa !9
  call void @llvm.lifetime.start.p0(i64 8, ptr %11) #3
  %12 = load ptr, ptr %6, align 8, !tbaa !15
  %13 = load i32, ptr %7, align 4, !tbaa !3
  %14 = call i32 @BIO_indent(ptr noundef %12, i32 noundef %13, i32 noundef 80)
  %15 = load ptr, ptr %6, align 8, !tbaa !15
  %16 = load ptr, ptr %8, align 8, !tbaa !13
  %17 = load i64, ptr %10, align 8, !tbaa !9
  %18 = trunc i64 %17 to i32
  %19 = call i32 (ptr, ptr, ...) @BIO_printf(ptr noundef %15, ptr noundef @.str.13, ptr noundef %16, i32 noundef %18)
  store i64 0, ptr %11, align 8, !tbaa !9
  br label %20

20:                                               ; preds = %32, %5
  %21 = load i64, ptr %11, align 8, !tbaa !9
  %22 = load i64, ptr %10, align 8, !tbaa !9
  %23 = icmp ult i64 %21, %22
  br i1 %23, label %24, label %35

24:                                               ; preds = %20
  %25 = load ptr, ptr %6, align 8, !tbaa !15
  %26 = load ptr, ptr %9, align 8, !tbaa !13
  %27 = load i64, ptr %11, align 8, !tbaa !9
  %28 = getelementptr inbounds nuw i8, ptr %26, i64 %27
  %29 = load i8, ptr %28, align 1, !tbaa !84
  %30 = zext i8 %29 to i32
  %31 = call i32 (ptr, ptr, ...) @BIO_printf(ptr noundef %25, ptr noundef @.str.14, i32 noundef %30)
  br label %32

32:                                               ; preds = %24
  %33 = load i64, ptr %11, align 8, !tbaa !9
  %34 = add i64 %33, 1
  store i64 %34, ptr %11, align 8, !tbaa !9
  br label %20, !llvm.loop !86

35:                                               ; preds = %20
  %36 = load ptr, ptr %6, align 8, !tbaa !15
  %37 = call i32 @BIO_puts(ptr noundef %36, ptr noundef @.str.12)
  call void @llvm.lifetime.end.p0(i64 8, ptr %11) #3
  ret void
}