; Function Attrs: nounwind uwtable
define internal fastcc void @ssl_print_hex(ptr noundef %0, i32 noundef range(i32 0, 15) %1, ptr noundef %2, ptr noundef readonly captures(none) %3, i64 noundef %4) unnamed_addr #0 {
  %6 = tail call i32 @BIO_indent(ptr noundef %0, i32 noundef %1, i32 noundef 80) #3
  %7 = trunc i64 %4 to i32
  %8 = tail call i32 (ptr, ptr, ...) @BIO_printf(ptr noundef %0, ptr noundef nonnull @.str.13, ptr noundef %2, i32 noundef %7) #3
  %.not = icmp eq i64 %4, 0
  br i1 %.not, label %._crit_edge, label %.lr.ph

.lr.ph:                                           ; preds = %5, %.lr.ph
  %.011 = phi i64 [ %13, %.lr.ph ], [ 0, %5 ]
  %9 = getelementptr inbounds nuw i8, ptr %3, i64 %.011
  %10 = load i8, ptr %9, align 1, !tbaa !75
  %11 = zext i8 %10 to i32
  %12 = tail call i32 (ptr, ptr, ...) @BIO_printf(ptr noundef %0, ptr noundef nonnull @.str.14, i32 noundef %11) #3
  %13 = add nuw i64 %.011, 1
  %exitcond.not = icmp eq i64 %13, %4
  br i1 %exitcond.not, label %._crit_edge, label %.lr.ph, !llvm.loop !76

._crit_edge:                                      ; preds = %.lr.ph, %5
  %14 = tail call i32 @BIO_puts(ptr noundef %0, ptr noundef nonnull @.str.12) #3
  ret void
}